; Function Attrs: mustprogress nounwind uwtable
define dso_local ptr @_ZNK4node12shadow_realm11ShadowRealm21domexception_functionEv(ptr nocapture noundef nonnull readonly align 8 dereferenceable(872) %this) unnamed_addr #3 align 2 {
entry:
  %isolate_ = getelementptr inbounds i8, ptr %this, i64 184
  %0 = load ptr, ptr %isolate_, align 8
  %domexception_function_ = getelementptr inbounds i8, ptr %this, i64 296
  %1 = load ptr, ptr %domexception_function_, align 8
  %cmp.i.i.i = icmp eq ptr %1, null
  br i1 %cmp.i.i.i, label %_ZN4node17PersistentToLocal7DefaultIN2v88FunctionEEENS2_5LocalIT_EEPNS2_7IsolateERKNS2_14PersistentBaseIS5_EE.exit, label %if.end.i.i

if.end.i.i:                                       ; preds = %entry
  %add.ptr.i.i.i = getelementptr inbounds i8, ptr %1, i64 11
  %2 = load i8, ptr %add.ptr.i.i.i, align 1
  %3 = and i8 %2, 3
  %cmp.i.i = icmp eq i8 %3, 2
  br i1 %cmp.i.i, label %_ZN4node17PersistentToLocal4WeakIN2v88FunctionEEENS2_5LocalIT_EEPNS2_7IsolateERKNS2_14PersistentBaseIS5_EE.exit.i, label %_ZN4node17PersistentToLocal7DefaultIN2v88FunctionEEENS2_5LocalIT_EEPNS2_7IsolateERKNS2_14PersistentBaseIS5_EE.exit

_ZN4node17PersistentToLocal4WeakIN2v88FunctionEEENS2_5LocalIT_EEPNS2_7IsolateERKNS2_14PersistentBaseIS5_EE.exit.i: ; preds = %if.end.i.i
  %4 = load i64, ptr %1, align 8
  %call.i.i.i = tail call noundef ptr @_ZN2v811HandleScope12CreateHandleEPNS_8internal7IsolateEm(ptr noundef %0, i64 noundef %4) #13
  br label %_ZN4node17PersistentToLocal7DefaultIN2v88FunctionEEENS2_5LocalIT_EEPNS2_7IsolateERKNS2_14PersistentBaseIS5_EE.exit

_ZN4node17PersistentToLocal7DefaultIN2v88FunctionEEENS2_5LocalIT_EEPNS2_7IsolateERKNS2_14PersistentBaseIS5_EE.exit: ; preds = %entry, %if.end.i.i, %_ZN4node17PersistentToLocal4WeakIN2v88FunctionEEENS2_5LocalIT_EEPNS2_7IsolateERKNS2_14PersistentBaseIS5_EE.exit.i
  %retval.sroa.0.0.i = phi ptr [ %call.i.i.i, %_ZN4node17PersistentToLocal4WeakIN2v88FunctionEEENS2_5LocalIT_EEPNS2_7IsolateERKNS2_14PersistentBaseIS5_EE.exit.i ], [ null, %entry ], [ %1, %if.end.i.i ]
  ret ptr %retval.sroa.0.0.i
}